target datalayout = "e-m:e-p270:32:32-p271:32:32-p272:64:64-i64:64-i128:128-f80:128-n8:16:32:64-S128"
target triple = "x86_64-unknown-linux-gnu"

%struct.QemuMutex = type { %union.pthread_mutex_t, i8 }
%union.pthread_mutex_t = type { %struct.__pthread_mutex_s }
%struct.__pthread_mutex_s = type { i32, i32, i32, i32, i32, i16, i16, %struct.__pthread_internal_list }
%struct.__pthread_internal_list = type { ptr, ptr }
%struct.PostcopyDiscardState = type { ptr, i16, [12 x i64], [12 x i64], i32, i32 }
%struct.QemuEvent = type { i32, i8 }
%struct.QemuThread = type { i64 }
%struct.QemuSemaphore = type { %struct.QemuMutex, %struct.QemuCond, i32 }
%struct.QemuCond = type { %union.pthread_cond_t, i8 }
%union.pthread_cond_t = type { %struct.__pthread_cond_s }
%struct.__pthread_cond_s = type { %union.__atomic_wide_counter, %union.__atomic_wide_counter, [2 x i32], [2 x i32], i32, i32, [2 x i32] }
%union.__atomic_wide_counter = type { i64 }
%struct.Object = type { ptr, ptr, ptr, i32, ptr }
%struct.MigrationState = type { %struct.DeviceState, %struct.QemuThread, ptr, ptr, ptr, ptr, %struct.QemuSemaphore, ptr, %struct.QemuMutex, %struct.QemuSemaphore, i64, double, i64, i64, i64, %struct.MigrationParameters, i32, %struct.anon.6, double, i64, i64, i64, i64, i64, [23 x i8], i64, i32, i8, i8, i8, i8, %struct.QemuSemaphore, %struct.QemuSemaphore, %struct.QemuSemaphore, %struct.QemuEvent, i64, ptr, ptr, %struct.QemuMutex, i8, i8, i8, i8, %struct.QemuSemaphore, i8, i8, i8, i8, ptr, ptr, i8, i8 }
%struct.DeviceState = type { %struct.Object, ptr, ptr, i8, i8, i64, ptr, i32, i8, ptr, %struct.NamedGPIOListHead, %struct.NamedClockListHead, %struct.BusStateHead, i32, i32, i32, %struct.ResettableState, ptr, %struct.MemReentrancyGuard }
%struct.NamedGPIOListHead = type { ptr }
%struct.NamedClockListHead = type { ptr }
%struct.BusStateHead = type { ptr }
%struct.ResettableState = type { i32, i8, i8 }
%struct.MemReentrancyGuard = type { i8 }
%struct.MigrationParameters = type { i8, i64, i8, i64, i8, i64, i8, i64, i8, i8, i8, i8, i8, i8, i8, i8, i8, i8, i8, i8, i8, i8, i8, i8, ptr, ptr, ptr, i8, i64, i8, i64, i8, i64, i8, i32, i8, i8, i8, i8, i8, i64, i8, i64, i8, i8, i8, i32, i8, i8, i8, i8, i8, ptr, i8, i64, i8, i64, i8, i32 }
%struct.anon.6 = type { ptr, %struct.QemuThread, i8, %struct.QemuSemaphore, %struct.QemuSemaphore }
%struct.timeval = type { i64, i64 }

@pds = internal global %struct.PostcopyDiscardState zeroinitializer, align 8
@trace_events_enabled_count = external global i32, align 4
@message_with_timestamp = external global i8, align 1
@qemu_loglevel = external global i32, align 4
@_TRACE_POSTCOPY_DISCARD_SEND_RANGE_DSTATE = external global i16, align 2
@.str.100 = private unnamed_addr constant [53 x i8] c"%d@%zu.%06zu:postcopy_discard_send_range %s:%lx/%lx\0A\00", align 1
@.str.101 = private unnamed_addr constant [40 x i8] c"postcopy_discard_send_range %s:%lx/%lx\0A\00", align 1

; Function Attrs: nounwind sspstrong uwtable
define internal zeroext i1 @qemu_loglevel_mask(i32 noundef %mask) #0 {
entry:
  %mask.addr = alloca i32, align 4
  store i32 %mask, ptr %mask.addr, align 4
  %0 = load i32, ptr @qemu_loglevel, align 4
  %1 = load i32, ptr %mask.addr, align 4
  %and = and i32 %0, %1
  %cmp = icmp ne i32 %and, 0
  ret i1 %cmp
}

; Function Attrs: nounwind sspstrong uwtable
define internal void @_nocheck__trace_postcopy_discard_send_range(ptr noundef %ramblock, i64 noundef %start, i64 noundef %length) #0 {
entry:
  %ramblock.addr = alloca ptr, align 8
  %start.addr = alloca i64, align 8
  %length.addr = alloca i64, align 8
  %_now = alloca %struct.timeval, align 8
  store ptr %ramblock, ptr %ramblock.addr, align 8
  store i64 %start, ptr %start.addr, align 8
  store i64 %length, ptr %length.addr, align 8
  %0 = load i32, ptr @trace_events_enabled_count, align 4
  %tobool = icmp ne i32 %0, 0
  %lnot = xor i1 %tobool, true
  %lnot1 = xor i1 %lnot, true
  %lnot.ext = zext i1 %lnot1 to i32
  %conv = sext i32 %lnot.ext to i64
  %tobool2 = icmp ne i64 %conv, 0
  br i1 %tobool2, label %land.lhs.true, label %if.end11

land.lhs.true:                                    ; preds = %entry
  %1 = load i16, ptr @_TRACE_POSTCOPY_DISCARD_SEND_RANGE_DSTATE, align 2
  %conv3 = zext i16 %1 to i32
  %tobool4 = icmp ne i32 %conv3, 0
  br i1 %tobool4, label %land.lhs.true5, label %if.end11

land.lhs.true5:                                   ; preds = %land.lhs.true
  %call = call zeroext i1 @qemu_loglevel_mask(i32 noundef 32768)
  br i1 %call, label %if.then, label %if.end11

if.then:                                          ; preds = %land.lhs.true5
  %2 = load i8, ptr @message_with_timestamp, align 1
  %tobool7 = trunc i8 %2 to i1
  br i1 %tobool7, label %if.then8, label %if.else

if.then8:                                         ; preds = %if.then
  %call9 = call i32 @gettimeofday(ptr noundef %_now, ptr noundef null) #11
  %call10 = call i32 @qemu_get_thread_id()
  %tv_sec = getelementptr inbounds %struct.timeval, ptr %_now, i32 0, i32 0
  %3 = load i64, ptr %tv_sec, align 8
  %tv_usec = getelementptr inbounds %struct.timeval, ptr %_now, i32 0, i32 1
  %4 = load i64, ptr %tv_usec, align 8
  %5 = load ptr, ptr %ramblock.addr, align 8
  %6 = load i64, ptr %start.addr, align 8
  %7 = load i64, ptr %length.addr, align 8
  call void (ptr, ...) @qemu_log(ptr noundef @.str.100, i32 noundef %call10, i64 noundef %3, i64 noundef %4, ptr noundef %5, i64 noundef %6, i64 noundef %7)
  br label %if.end

if.else:                                          ; preds = %if.then
  %8 = load ptr, ptr %ramblock.addr, align 8
  %9 = load i64, ptr %start.addr, align 8
  %10 = load i64, ptr %length.addr, align 8
  call void (ptr, ...) @qemu_log(ptr noundef @.str.101, ptr noundef %8, i64 noundef %9, i64 noundef %10)
  br label %if.end

if.end:                                           ; preds = %if.else, %if.then8
  br label %if.end11

if.end11:                                         ; preds = %if.end, %land.lhs.true5, %land.lhs.true, %entry
  ret void
}

; Function Attrs: nounwind sspstrong uwtable
define internal void @trace_postcopy_discard_send_range(ptr noundef %ramblock, i64 noundef %start, i64 noundef %length) #0 {
entry:
  %ramblock.addr = alloca ptr, align 8
  %start.addr = alloca i64, align 8
  %length.addr = alloca i64, align 8
  store ptr %ramblock, ptr %ramblock.addr, align 8
  store i64 %start, ptr %start.addr, align 8
  store i64 %length, ptr %length.addr, align 8
  %0 = load ptr, ptr %ramblock.addr, align 8
  %1 = load i64, ptr %start.addr, align 8
  %2 = load i64, ptr %length.addr, align 8
  call void @_nocheck__trace_postcopy_discard_send_range(ptr noundef %0, i64 noundef %1, i64 noundef %2)
  ret void
}

; Function Attrs: nounwind sspstrong uwtable
define dso_local void @postcopy_discard_send_range(ptr noundef %ms, i64 noundef %start, i64 noundef %length) #0 {
entry:
  %ms.addr = alloca ptr, align 8
  %start.addr = alloca i64, align 8
  %length.addr = alloca i64, align 8
  %tp_size = alloca i64, align 8
  store ptr %ms, ptr %ms.addr, align 8
  store i64 %start, ptr %start.addr, align 8
  store i64 %length, ptr %length.addr, align 8
  %call = call i64 @qemu_target_page_size()
  store i64 %call, ptr %tp_size, align 8
  %0 = load i64, ptr %start.addr, align 8
  %1 = load i64, ptr %tp_size, align 8
  %mul = mul i64 %0, %1
  %2 = getelementptr inbounds %struct.PostcopyDiscardState, ptr @pds, i32 0, i32 1
  %3 = load i16, ptr %2, align 8
  %idxprom = zext i16 %3 to i64
  %4 = getelementptr inbounds %struct.PostcopyDiscardState, ptr @pds, i32 0, i32 2
  %arrayidx = getelementptr [12 x i64], ptr %4, i64 0, i64 %idxprom
  store i64 %mul, ptr %arrayidx, align 8
  %5 = load i64, ptr %length.addr, align 8
  %6 = load i64, ptr %tp_size, align 8
  %mul1 = mul i64 %5, %6
  %7 = getelementptr inbounds %struct.PostcopyDiscardState, ptr @pds, i32 0, i32 1
  %8 = load i16, ptr %7, align 8
  %idxprom2 = zext i16 %8 to i64
  %9 = getelementptr inbounds %struct.PostcopyDiscardState, ptr @pds, i32 0, i32 3
  %arrayidx3 = getelementptr [12 x i64], ptr %9, i64 0, i64 %idxprom2
  store i64 %mul1, ptr %arrayidx3, align 8
  %10 = load ptr, ptr @pds, align 8
  %11 = load i64, ptr %start.addr, align 8
  %12 = load i64, ptr %length.addr, align 8
  call void @trace_postcopy_discard_send_range(ptr noundef %10, i64 noundef %11, i64 noundef %12)
  %13 = getelementptr inbounds %struct.PostcopyDiscardState, ptr @pds, i32 0, i32 1
  %14 = load i16, ptr %13, align 8
  %inc = add i16 %14, 1
  %15 = getelementptr inbounds %struct.PostcopyDiscardState, ptr @pds, i32 0, i32 1
  store i16 %inc, ptr %15, align 8
  %16 = getelementptr inbounds %struct.PostcopyDiscardState, ptr @pds, i32 0, i32 4
  %17 = load i32, ptr %16, align 8
  %inc4 = add i32 %17, 1
  %18 = getelementptr inbounds %struct.PostcopyDiscardState, ptr @pds, i32 0, i32 4
  store i32 %inc4, ptr %18, align 8
  %19 = getelementptr inbounds %struct.PostcopyDiscardState, ptr @pds, i32 0, i32 1
  %20 = load i16, ptr %19, align 8
  %conv = zext i16 %20 to i32
  %cmp = icmp eq i32 %conv, 12
  br i1 %cmp, label %if.then, label %if.end

if.then:                                          ; preds = %entry
  %21 = load ptr, ptr %ms.addr, align 8
  %to_dst_file = getelementptr inbounds %struct.MigrationState, ptr %21, i32 0, i32 4
  %22 = load ptr, ptr %to_dst_file, align 8
  %23 = load ptr, ptr @pds, align 8
  %24 = getelementptr inbounds %struct.PostcopyDiscardState, ptr @pds, i32 0, i32 1
  %25 = load i16, ptr %24, align 8
  %26 = getelementptr inbounds %struct.PostcopyDiscardState, ptr @pds, i32 0, i32 2
  %27 = getelementptr inbounds %struct.PostcopyDiscardState, ptr @pds, i32 0, i32 3
  call void @qemu_savevm_send_postcopy_ram_discard(ptr noundef %22, ptr noundef %23, i16 noundef zeroext %25, ptr noundef %26, ptr noundef %27)
  %28 = getelementptr inbounds %struct.PostcopyDiscardState, ptr @pds, i32 0, i32 5
  %29 = load i32, ptr %28, align 4
  %inc6 = add i32 %29, 1
  %30 = getelementptr inbounds %struct.PostcopyDiscardState, ptr @pds, i32 0, i32 5
  store i32 %inc6, ptr %30, align 4
  %31 = getelementptr inbounds %struct.PostcopyDiscardState, ptr @pds, i32 0, i32 1
  store i16 0, ptr %31, align 8
  br label %if.end

if.end:                                           ; preds = %if.then, %entry
  ret void
}