; Function Attrs: nounwind sspstrong uwtable
define dso_local void @postcopy_discard_send_range(ptr noundef readonly captures(none) %ms, i64 noundef %start, i64 noundef %length) local_unnamed_addr #0 {
entry:
  %_now.i.i = alloca %struct.timeval, align 8
  %call = tail call i64 @qemu_target_page_size() #16
  %mul = mul i64 %call, %start
  %0 = load i16, ptr getelementptr inbounds nuw (i8, ptr @pds, i64 8), align 8
  %idxprom = zext i16 %0 to i64
  %arrayidx = getelementptr [12 x i64], ptr getelementptr inbounds nuw (i8, ptr @pds, i64 16), i64 0, i64 %idxprom
  store i64 %mul, ptr %arrayidx, align 8
  %mul1 = mul i64 %call, %length
  %arrayidx3 = getelementptr [12 x i64], ptr getelementptr inbounds nuw (i8, ptr @pds, i64 112), i64 0, i64 %idxprom
  store i64 %mul1, ptr %arrayidx3, align 8
  %1 = load ptr, ptr @pds, align 8
  call void @llvm.lifetime.start.p0(i64 16, ptr nonnull %_now.i.i)
  %2 = load i32, ptr @trace_events_enabled_count, align 4
  %tobool.i.i = icmp ne i32 %2, 0
  %3 = load i16, ptr @_TRACE_POSTCOPY_DISCARD_SEND_RANGE_DSTATE, align 2
  %tobool4.i.i = icmp ne i16 %3, 0
  %or.cond.i.i = select i1 %tobool.i.i, i1 %tobool4.i.i, i1 false
  br i1 %or.cond.i.i, label %land.lhs.true5.i.i, label %trace_postcopy_discard_send_range.exit

land.lhs.true5.i.i:                               ; preds = %entry
  %4 = load i32, ptr @qemu_loglevel, align 4
  %and.i.i.i = and i32 %4, 32768
  %cmp.i.not.i.i = icmp eq i32 %and.i.i.i, 0
  br i1 %cmp.i.not.i.i, label %trace_postcopy_discard_send_range.exit, label %if.then.i.i

if.then.i.i:                                      ; preds = %land.lhs.true5.i.i
  %5 = load i8, ptr @message_with_timestamp, align 1
  %tobool7.i.i = trunc i8 %5 to i1
  br i1 %tobool7.i.i, label %if.then8.i.i, label %if.else.i.i

if.then8.i.i:                                     ; preds = %if.then.i.i
  %call9.i.i = call i32 @gettimeofday(ptr noundef nonnull %_now.i.i, ptr noundef null) #16
  %call10.i.i = tail call i32 @qemu_get_thread_id() #16
  %6 = load i64, ptr %_now.i.i, align 8
  %tv_usec.i.i = getelementptr inbounds nuw i8, ptr %_now.i.i, i64 8
  %7 = load i64, ptr %tv_usec.i.i, align 8
  tail call void (ptr, ...) @qemu_log(ptr noundef nonnull @.str.100, i32 noundef %call10.i.i, i64 noundef %6, i64 noundef %7, ptr noundef %1, i64 noundef %start, i64 noundef %length) #16
  br label %trace_postcopy_discard_send_range.exit

if.else.i.i:                                      ; preds = %if.then.i.i
  tail call void (ptr, ...) @qemu_log(ptr noundef nonnull @.str.101, ptr noundef %1, i64 noundef %start, i64 noundef %length) #16
  br label %trace_postcopy_discard_send_range.exit

trace_postcopy_discard_send_range.exit:           ; preds = %entry, %land.lhs.true5.i.i, %if.then8.i.i, %if.else.i.i
  call void @llvm.lifetime.end.p0(i64 16, ptr nonnull %_now.i.i)
  %8 = load i16, ptr getelementptr inbounds nuw (i8, ptr @pds, i64 8), align 8
  %inc = add i16 %8, 1
  store i16 %inc, ptr getelementptr inbounds nuw (i8, ptr @pds, i64 8), align 8
  %9 = load i32, ptr getelementptr inbounds nuw (i8, ptr @pds, i64 208), align 8
  %inc4 = add i32 %9, 1
  store i32 %inc4, ptr getelementptr inbounds nuw (i8, ptr @pds, i64 208), align 8
  %cmp = icmp eq i16 %inc, 12
  br i1 %cmp, label %if.then, label %if.end

if.then:                                          ; preds = %trace_postcopy_discard_send_range.exit
  %to_dst_file = getelementptr inbounds nuw i8, ptr %ms, i64 184
  %10 = load ptr, ptr %to_dst_file, align 8
  %11 = load ptr, ptr @pds, align 8
  tail call void @qemu_savevm_send_postcopy_ram_discard(ptr noundef %10, ptr noundef %11, i16 noundef zeroext 12, ptr noundef nonnull getelementptr inbounds nuw (i8, ptr @pds, i64 16), ptr noundef nonnull getelementptr inbounds nuw (i8, ptr @pds, i64 112)) #16
  %12 = load i32, ptr getelementptr inbounds nuw (i8, ptr @pds, i64 212), align 4
  %inc6 = add i32 %12, 1
  store i32 %inc6, ptr getelementptr inbounds nuw (i8, ptr @pds, i64 212), align 4
  store i16 0, ptr getelementptr inbounds nuw (i8, ptr @pds, i64 8), align 8
  br label %if.end

if.end:                                           ; preds = %if.then, %trace_postcopy_discard_send_range.exit
  ret void
}